; ModuleID = '6/4186.c'
source_filename = "6/4186.c"
target datalayout = "e-m:e-p270:32:32-p271:32:32-p272:64:64-i64:64-f80:128-n8:16:32:64-S128"
target triple = "x86_64-pc-linux-gnu"

@.str = private unnamed_addr constant [3 x i8] c"%d\00", align 1
@.str.1 = private unnamed_addr constant [5 x i8] c"%d%d\00", align 1
@.str.2 = private unnamed_addr constant [4 x i8] c"%d\0A\00", align 1

; Function Attrs: noinline nounwind uwtable
define dso_local i32 @main() #0 {
  %1 = alloca i32, align 4
  %2 = alloca i32, align 4
  %3 = alloca i32, align 4
  %4 = alloca i32, align 4
  %5 = alloca i32, align 4
  %6 = alloca i32, align 4
  %7 = alloca i32, align 4
  %8 = alloca i32, align 4
  %9 = alloca i32, align 4
  %10 = alloca i32, align 4
  %11 = alloca [100 x [100 x i32]], align 16
  %12 = alloca [100 x i32], align 16
  %13 = alloca i32, align 4
  store i32 0, i32* %1, align 4
  %14 = call i32 (i8*, ...) @__isoc99_scanf(i8* getelementptr inbounds ([3 x i8], [3 x i8]* @.str, i64 0, i64 0), i32* %4)
  store i32 0, i32* %2, align 4
  br label %15

15:                                               ; preds = %129, %0
  %16 = load i32, i32* %2, align 4
  %17 = load i32, i32* %4, align 4
  %18 = icmp slt i32 %16, %17
  br i1 %18, label %19, label %132

19:                                               ; preds = %15
  %20 = call i32 (i8*, ...) @__isoc99_scanf(i8* getelementptr inbounds ([5 x i8], [5 x i8]* @.str.1, i64 0, i64 0), i32* %8, i32* %10)
  store i32 0, i32* %6, align 4
  br label %21

21:                                               ; preds = %42, %19
  %22 = load i32, i32* %6, align 4
  %23 = load i32, i32* %8, align 4
  %24 = icmp slt i32 %22, %23
  br i1 %24, label %25, label %45

25:                                               ; preds = %21
  store i32 0, i32* %9, align 4
  br label %26

26:                                               ; preds = %38, %25
  %27 = load i32, i32* %9, align 4
  %28 = load i32, i32* %10, align 4
  %29 = icmp slt i32 %27, %28
  br i1 %29, label %30, label %41

30:                                               ; preds = %26
  %31 = load i32, i32* %6, align 4
  %32 = sext i32 %31 to i64
  %33 = getelementptr inbounds [100 x [100 x i32]], [100 x [100 x i32]]* %11, i64 0, i64 %32
  %34 = load i32, i32* %9, align 4
  %35 = sext i32 %34 to i64
  %36 = getelementptr inbounds [100 x i32], [100 x i32]* %33, i64 0, i64 %35
  %37 = call i32 (i8*, ...) @__isoc99_scanf(i8* getelementptr inbounds ([3 x i8], [3 x i8]* @.str, i64 0, i64 0), i32* %36)
  br label %38

38:                                               ; preds = %30
  %39 = load i32, i32* %9, align 4
  %40 = add nsw i32 %39, 1
  store i32 %40, i32* %9, align 4
  br label %26

41:                                               ; preds = %26
  br label %42

42:                                               ; preds = %41
  %43 = load i32, i32* %6, align 4
  %44 = add nsw i32 %43, 1
  store i32 %44, i32* %6, align 4
  br label %21

45:                                               ; preds = %21
  store i32 0, i32* %13, align 4
  store i32 0, i32* %7, align 4
  br label %46

46:                                               ; preds = %67, %45
  %47 = load i32, i32* %7, align 4
  %48 = load i32, i32* %10, align 4
  %49 = icmp slt i32 %47, %48
  br i1 %49, label %50, label %70

50:                                               ; preds = %46
  %51 = load i32, i32* %13, align 4
  %52 = getelementptr inbounds [100 x [100 x i32]], [100 x [100 x i32]]* %11, i64 0, i64 0
  %53 = load i32, i32* %7, align 4
  %54 = sext i32 %53 to i64
  %55 = getelementptr inbounds [100 x i32], [100 x i32]* %52, i64 0, i64 %54
  %56 = load i32, i32* %55, align 4
  %57 = add nsw i32 %51, %56
  %58 = load i32, i32* %8, align 4
  %59 = sub nsw i32 %58, 1
  %60 = sext i32 %59 to i64
  %61 = getelementptr inbounds [100 x [100 x i32]], [100 x [100 x i32]]* %11, i64 0, i64 %60
  %62 = load i32, i32* %7, align 4
  %63 = sext i32 %62 to i64
  %64 = getelementptr inbounds [100 x i32], [100 x i32]* %61, i64 0, i64 %63
  %65 = load i32, i32* %64, align 4
  %66 = add nsw i32 %57, %65
  store i32 %66, i32* %13, align 4
  br label %67

67:                                               ; preds = %50
  %68 = load i32, i32* %7, align 4
  %69 = add nsw i32 %68, 1
  store i32 %69, i32* %7, align 4
  br label %46

70:                                               ; preds = %46
  store i32 0, i32* %5, align 4
  br label %71

71:                                               ; preds = %92, %70
  %72 = load i32, i32* %5, align 4
  %73 = load i32, i32* %8, align 4
  %74 = icmp slt i32 %72, %73
  br i1 %74, label %75, label %95

75:                                               ; preds = %71
  %76 = load i32, i32* %13, align 4
  %77 = load i32, i32* %5, align 4
  %78 = sext i32 %77 to i64
  %79 = getelementptr inbounds [100 x [100 x i32]], [100 x [100 x i32]]* %11, i64 0, i64 %78
  %80 = getelementptr inbounds [100 x i32], [100 x i32]* %79, i64 0, i64 0
  %81 = load i32, i32* %80, align 16
  %82 = add nsw i32 %76, %81
  %83 = load i32, i32* %5, align 4
  %84 = sext i32 %83 to i64
  %85 = getelementptr inbounds [100 x [100 x i32]], [100 x [100 x i32]]* %11, i64 0, i64 %84
  %86 = load i32, i32* %10, align 4
  %87 = sub nsw i32 %86, 1
  %88 = sext i32 %87 to i64
  %89 = getelementptr inbounds [100 x i32], [100 x i32]* %85, i64 0, i64 %88
  %90 = load i32, i32* %89, align 4
  %91 = add nsw i32 %82, %90
  store i32 %91, i32* %13, align 4
  br label %92

92:                                               ; preds = %75
  %93 = load i32, i32* %5, align 4
  %94 = add nsw i32 %93, 1
  store i32 %94, i32* %5, align 4
  br label %71

95:                                               ; preds = %71
  %96 = load i32, i32* %13, align 4
  %97 = getelementptr inbounds [100 x [100 x i32]], [100 x [100 x i32]]* %11, i64 0, i64 0
  %98 = getelementptr inbounds [100 x i32], [100 x i32]* %97, i64 0, i64 0
  %99 = load i32, i32* %98, align 16
  %100 = sub nsw i32 %96, %99
  %101 = getelementptr inbounds [100 x [100 x i32]], [100 x [100 x i32]]* %11, i64 0, i64 0
  %102 = load i32, i32* %10, align 4
  %103 = sub nsw i32 %102, 1
  %104 = sext i32 %103 to i64
  %105 = getelementptr inbounds [100 x i32], [100 x i32]* %101, i64 0, i64 %104
  %106 = load i32, i32* %105, align 4
  %107 = sub nsw i32 %100, %106
  %108 = load i32, i32* %8, align 4
  %109 = sub nsw i32 %108, 1
  %110 = sext i32 %109 to i64
  %111 = getelementptr inbounds [100 x [100 x i32]], [100 x [100 x i32]]* %11, i64 0, i64 %110
  %112 = getelementptr inbounds [100 x i32], [100 x i32]* %111, i64 0, i64 0
  %113 = load i32, i32* %112, align 16
  %114 = sub nsw i32 %107, %113
  %115 = load i32, i32* %8, align 4
  %116 = sub nsw i32 %115, 1
  %117 = sext i32 %116 to i64
  %118 = getelementptr inbounds [100 x [100 x i32]], [100 x [100 x i32]]* %11, i64 0, i64 %117
  %119 = load i32, i32* %10, align 4
  %120 = sub nsw i32 %119, 1
  %121 = sext i32 %120 to i64
  %122 = getelementptr inbounds [100 x i32], [100 x i32]* %118, i64 0, i64 %121
  %123 = load i32, i32* %122, align 4
  %124 = sub nsw i32 %114, %123
  store i32 %124, i32* %13, align 4
  %125 = load i32, i32* %13, align 4
  %126 = load i32, i32* %2, align 4
  %127 = sext i32 %126 to i64
  %128 = getelementptr inbounds [100 x i32], [100 x i32]* %12, i64 0, i64 %127
  store i32 %125, i32* %128, align 4
  br label %129

129:                                              ; preds = %95
  %130 = load i32, i32* %2, align 4
  %131 = add nsw i32 %130, 1
  store i32 %131, i32* %2, align 4
  br label %15

132:                                              ; preds = %15
  store i32 0, i32* %3, align 4
  br label %133

133:                                              ; preds = %143, %132
  %134 = load i32, i32* %3, align 4
  %135 = load i32, i32* %4, align 4
  %136 = icmp slt i32 %134, %135
  br i1 %136, label %137, label %146

137:                                              ; preds = %133
  %138 = load i32, i32* %3, align 4
  %139 = sext i32 %138 to i64
  %140 = getelementptr inbounds [100 x i32], [100 x i32]* %12, i64 0, i64 %139
  %141 = load i32, i32* %140, align 4
  %142 = call i32 (i8*, ...) @printf(i8* getelementptr inbounds ([4 x i8], [4 x i8]* @.str.2, i64 0, i64 0), i32 %141)
  br label %143

143:                                              ; preds = %137
  %144 = load i32, i32* %3, align 4
  %145 = add nsw i32 %144, 1
  store i32 %145, i32* %3, align 4
  br label %133

146:                                              ; preds = %133
  ret i32 0
}

declare dso_local i32 @__isoc99_scanf(i8*, ...) #1

declare dso_local i32 @printf(i8*, ...) #1


!llvm.module.flags = !{!0}
!llvm.ident = !{!1}

!0 = !{i32 1, !"wchar_size", i32 4}
!1 = !{!"clang version 10.0.0-4ubuntu1 "}
